; ModuleID = 'source-C-CXX/10/356.c'
source_filename = "source-C-CXX/10/356.c"
target datalayout = "e-m:e-p270:32:32-p271:32:32-p272:64:64-i64:64-f80:128-n8:16:32:64-S128"
target triple = "x86_64-pc-linux-gnu"

@.str = private unnamed_addr constant [9 x i8] c"%d %d %d\00", align 1
@.str.1 = private unnamed_addr constant [3 x i8] c"%d\00", align 1

; Function Attrs: nofree nounwind sspstrong uwtable
define dso_local i32 @main() local_unnamed_addr #0 {
  %1 = alloca i32, align 4
  %2 = alloca i32, align 4
  %3 = alloca i32, align 4
  %4 = bitcast i32* %1 to i8*
  call void @llvm.lifetime.start.p0i8(i64 4, i8* nonnull %4) #3
  %5 = bitcast i32* %2 to i8*
  call void @llvm.lifetime.start.p0i8(i64 4, i8* nonnull %5) #3
  %6 = bitcast i32* %3 to i8*
  call void @llvm.lifetime.start.p0i8(i64 4, i8* nonnull %6) #3
  %7 = call i32 (i8*, ...) @__isoc99_scanf(i8* getelementptr inbounds ([9 x i8], [9 x i8]* @.str, i64 0, i64 0), i32* nonnull %1, i32* nonnull %2, i32* nonnull %3)
  %8 = load i32, i32* %1, align 4, !tbaa !5
  %9 = srem i32 %8, 400
  %10 = icmp eq i32 %9, 0
  br i1 %10, label %17, label %11

11:                                               ; preds = %0
  %12 = and i32 %8, 3
  %13 = icmp ne i32 %12, 0
  %14 = srem i32 %8, 100
  %15 = icmp eq i32 %14, 0
  %16 = or i1 %13, %15
  br i1 %16, label %54, label %17

17:                                               ; preds = %11, %0
  %18 = load i32, i32* %2, align 4, !tbaa !5
  switch i32 %18, label %91 [
    i32 1, label %19
    i32 2, label %21
    i32 3, label %24
    i32 4, label %27
    i32 5, label %30
    i32 6, label %33
    i32 7, label %36
    i32 8, label %39
    i32 9, label %42
    i32 10, label %45
    i32 11, label %48
    i32 12, label %51
  ]

19:                                               ; preds = %17
  %20 = load i32, i32* %3, align 4, !tbaa !5
  br label %91

21:                                               ; preds = %17
  %22 = load i32, i32* %3, align 4, !tbaa !5
  %23 = add nsw i32 %22, 31
  br label %91

24:                                               ; preds = %17
  %25 = load i32, i32* %3, align 4, !tbaa !5
  %26 = add nsw i32 %25, 60
  br label %91

27:                                               ; preds = %17
  %28 = load i32, i32* %3, align 4, !tbaa !5
  %29 = add nsw i32 %28, 91
  br label %91

30:                                               ; preds = %17
  %31 = load i32, i32* %3, align 4, !tbaa !5
  %32 = add nsw i32 %31, 121
  br label %91

33:                                               ; preds = %17
  %34 = load i32, i32* %3, align 4, !tbaa !5
  %35 = add nsw i32 %34, 152
  br label %91

36:                                               ; preds = %17
  %37 = load i32, i32* %3, align 4, !tbaa !5
  %38 = add nsw i32 %37, 182
  br label %91

39:                                               ; preds = %17
  %40 = load i32, i32* %3, align 4, !tbaa !5
  %41 = add nsw i32 %40, 213
  br label %91

42:                                               ; preds = %17
  %43 = load i32, i32* %3, align 4, !tbaa !5
  %44 = add nsw i32 %43, 244
  br label %91

45:                                               ; preds = %17
  %46 = load i32, i32* %3, align 4, !tbaa !5
  %47 = add nsw i32 %46, 274
  br label %91

48:                                               ; preds = %17
  %49 = load i32, i32* %3, align 4, !tbaa !5
  %50 = add nsw i32 %49, 305
  br label %91

51:                                               ; preds = %17
  %52 = load i32, i32* %3, align 4, !tbaa !5
  %53 = add nsw i32 %52, 335
  br label %91

54:                                               ; preds = %11
  %55 = load i32, i32* %2, align 4, !tbaa !5
  switch i32 %55, label %91 [
    i32 1, label %56
    i32 2, label %58
    i32 3, label %61
    i32 4, label %64
    i32 5, label %67
    i32 6, label %70
    i32 7, label %73
    i32 8, label %76
    i32 9, label %79
    i32 10, label %82
    i32 11, label %85
    i32 12, label %88
  ]

56:                                               ; preds = %54
  %57 = load i32, i32* %3, align 4, !tbaa !5
  br label %91

58:                                               ; preds = %54
  %59 = load i32, i32* %3, align 4, !tbaa !5
  %60 = add nsw i32 %59, 31
  br label %91

61:                                               ; preds = %54
  %62 = load i32, i32* %3, align 4, !tbaa !5
  %63 = add nsw i32 %62, 59
  br label %91

64:                                               ; preds = %54
  %65 = load i32, i32* %3, align 4, !tbaa !5
  %66 = add nsw i32 %65, 90
  br label %91

67:                                               ; preds = %54
  %68 = load i32, i32* %3, align 4, !tbaa !5
  %69 = add nsw i32 %68, 120
  br label %91

70:                                               ; preds = %54
  %71 = load i32, i32* %3, align 4, !tbaa !5
  %72 = add nsw i32 %71, 151
  br label %91

73:                                               ; preds = %54
  %74 = load i32, i32* %3, align 4, !tbaa !5
  %75 = add nsw i32 %74, 181
  br label %91

76:                                               ; preds = %54
  %77 = load i32, i32* %3, align 4, !tbaa !5
  %78 = add nsw i32 %77, 212
  br label %91

79:                                               ; preds = %54
  %80 = load i32, i32* %3, align 4, !tbaa !5
  %81 = add nsw i32 %80, 243
  br label %91

82:                                               ; preds = %54
  %83 = load i32, i32* %3, align 4, !tbaa !5
  %84 = add nsw i32 %83, 273
  br label %91

85:                                               ; preds = %54
  %86 = load i32, i32* %3, align 4, !tbaa !5
  %87 = add nsw i32 %86, 304
  br label %91

88:                                               ; preds = %54
  %89 = load i32, i32* %3, align 4, !tbaa !5
  %90 = add nsw i32 %89, 334
  br label %91

91:                                               ; preds = %56, %58, %61, %64, %67, %70, %73, %76, %79, %82, %85, %88, %54, %19, %21, %24, %27, %30, %33, %36, %39, %42, %45, %48, %51, %17
  %92 = phi i32 [ undef, %17 ], [ %53, %51 ], [ %50, %48 ], [ %47, %45 ], [ %44, %42 ], [ %41, %39 ], [ %38, %36 ], [ %35, %33 ], [ %32, %30 ], [ %29, %27 ], [ %26, %24 ], [ %23, %21 ], [ %20, %19 ], [ undef, %54 ], [ %90, %88 ], [ %87, %85 ], [ %84, %82 ], [ %81, %79 ], [ %78, %76 ], [ %75, %73 ], [ %72, %70 ], [ %69, %67 ], [ %66, %64 ], [ %63, %61 ], [ %60, %58 ], [ %57, %56 ]
  %93 = call i32 (i8*, ...) @printf(i8* nonnull dereferenceable(1) getelementptr inbounds ([3 x i8], [3 x i8]* @.str.1, i64 0, i64 0), i32 %92)
  call void @llvm.lifetime.end.p0i8(i64 4, i8* nonnull %6) #3
  call void @llvm.lifetime.end.p0i8(i64 4, i8* nonnull %5) #3
  call void @llvm.lifetime.end.p0i8(i64 4, i8* nonnull %4) #3
  ret i32 0
}

; Function Attrs: argmemonly mustprogress nofree nosync nounwind willreturn
declare void @llvm.lifetime.start.p0i8(i64 immarg, i8* nocapture) #1

; Function Attrs: nofree nounwind
declare noundef i32 @__isoc99_scanf(i8* nocapture noundef readonly, ...) local_unnamed_addr #2

; Function Attrs: nofree nounwind
declare noundef i32 @printf(i8* nocapture noundef readonly, ...) local_unnamed_addr #2

; Function Attrs: argmemonly mustprogress nofree nosync nounwind willreturn
declare void @llvm.lifetime.end.p0i8(i64 immarg, i8* nocapture) #1


!llvm.module.flags = !{!0, !1, !2, !3}
!llvm.ident = !{!4}

!0 = !{i32 1, !"wchar_size", i32 4}
!1 = !{i32 7, !"PIC Level", i32 2}
!2 = !{i32 7, !"PIE Level", i32 2}
!3 = !{i32 7, !"uwtable", i32 1}
!4 = !{!"clang version 13.0.0"}
!5 = !{!6, !6, i64 0}
!6 = !{!"int", !7, i64 0}
!7 = !{!"omnipotent char", !8, i64 0}
!8 = !{!"Simple C/C++ TBAA"}
